; ModuleID = 'source-C-CXX/22/623.cpp'
source_filename = "source-C-CXX/22/623.cpp"
target datalayout = "e-m:e-p270:32:32-p271:32:32-p272:64:64-i64:64-f80:128-n8:16:32:64-S128"
target triple = "x86_64-pc-linux-gnu"

%"class.std::ios_base::Init" = type { i8 }
%"class.std::basic_istream" = type { i32 (...)**, i64, %"class.std::basic_ios" }
%"class.std::basic_ios" = type { %"class.std::ios_base", %"class.std::basic_ostream"*, i8, i8, %"class.std::basic_streambuf"*, %"class.std::ctype"*, %"class.std::num_put"*, %"class.std::num_get"* }
%"class.std::ios_base" = type { i32 (...)**, i64, i64, i32, i32, i32, %"struct.std::ios_base::_Callback_list"*, %"struct.std::ios_base::_Words", [8 x %"struct.std::ios_base::_Words"], i32, %"struct.std::ios_base::_Words"*, %"class.std::locale" }
%"struct.std::ios_base::_Callback_list" = type { %"struct.std::ios_base::_Callback_list"*, void (i32, %"class.std::ios_base"*, i32)*, i32, i32 }
%"struct.std::ios_base::_Words" = type { i8*, i64 }
%"class.std::locale" = type { %"class.std::locale::_Impl"* }
%"class.std::locale::_Impl" = type { i32, %"class.std::locale::facet"**, i64, %"class.std::locale::facet"**, i8** }
%"class.std::locale::facet" = type <{ i32 (...)**, i32, [4 x i8] }>
%"class.std::basic_ostream" = type { i32 (...)**, %"class.std::basic_ios" }
%"class.std::basic_streambuf" = type { i32 (...)**, i8*, i8*, i8*, i8*, i8*, i8*, %"class.std::locale" }
%"class.std::ctype" = type <{ %"class.std::locale::facet.base", [4 x i8], %struct.__locale_struct*, i8, [7 x i8], i32*, i32*, i16*, i8, [256 x i8], [256 x i8], i8, [6 x i8] }>
%"class.std::locale::facet.base" = type <{ i32 (...)**, i32 }>
%struct.__locale_struct = type { [13 x %struct.__locale_data*], i16*, i32*, i32*, [13 x i8*] }
%struct.__locale_data = type opaque
%"class.std::num_put" = type { %"class.std::locale::facet.base", [4 x i8] }
%"class.std::num_get" = type { %"class.std::locale::facet.base", [4 x i8] }

@_ZStL8__ioinit = internal global %"class.std::ios_base::Init" zeroinitializer, align 1
@__dso_handle = external hidden global i8
@_ZSt3cin = external global %"class.std::basic_istream", align 8
@_ZSt4cout = external global %"class.std::basic_ostream", align 8
@.str = private unnamed_addr constant [2 x i8] c" \00", align 1
@llvm.global_ctors = appending global [1 x { i32, void ()*, i8* }] [{ i32, void ()*, i8* } { i32 65535, void ()* @_GLOBAL__sub_I_623.cpp, i8* null }]

declare void @_ZNSt8ios_base4InitC1Ev(%"class.std::ios_base::Init"* nonnull align 1 dereferenceable(1)) unnamed_addr #0

; Function Attrs: nounwind
declare void @_ZNSt8ios_base4InitD1Ev(%"class.std::ios_base::Init"* nonnull align 1 dereferenceable(1)) unnamed_addr #1

; Function Attrs: nofree nounwind
declare i32 @__cxa_atexit(void (i8*)*, i8*, i8*) local_unnamed_addr #2

; Function Attrs: mustprogress norecurse sspstrong uwtable
define dso_local i32 @main() local_unnamed_addr #3 {
  %1 = alloca i8, align 1
  %2 = alloca i8, align 1
  %3 = alloca [5000 x i8], align 16
  %4 = getelementptr inbounds [5000 x i8], [5000 x i8]* %3, i64 0, i64 0
  call void @llvm.lifetime.start.p0i8(i64 5000, i8* nonnull %4) #8
  %5 = load i8*, i8** bitcast (%"class.std::basic_istream"* @_ZSt3cin to i8**), align 8, !tbaa !5
  %6 = getelementptr i8, i8* %5, i64 -24
  %7 = bitcast i8* %6 to i64*
  %8 = load i64, i64* %7, align 8
  %9 = add nsw i64 %8, 240
  %10 = getelementptr inbounds i8, i8* bitcast (%"class.std::basic_istream"* @_ZSt3cin to i8*), i64 %9
  %11 = bitcast i8* %10 to %"class.std::ctype"**
  %12 = load %"class.std::ctype"*, %"class.std::ctype"** %11, align 8, !tbaa !8
  %13 = icmp eq %"class.std::ctype"* %12, null
  br i1 %13, label %14, label %15

14:                                               ; preds = %0
  tail call void @_ZSt16__throw_bad_castv() #9
  unreachable

15:                                               ; preds = %0
  %16 = getelementptr inbounds %"class.std::ctype", %"class.std::ctype"* %12, i64 0, i32 8
  %17 = load i8, i8* %16, align 8, !tbaa !13
  %18 = icmp eq i8 %17, 0
  br i1 %18, label %22, label %19

19:                                               ; preds = %15
  %20 = getelementptr inbounds %"class.std::ctype", %"class.std::ctype"* %12, i64 0, i32 9, i64 10
  %21 = load i8, i8* %20, align 1, !tbaa !15
  br label %28

22:                                               ; preds = %15
  tail call void @_ZNKSt5ctypeIcE13_M_widen_initEv(%"class.std::ctype"* nonnull align 8 dereferenceable(570) %12)
  %23 = bitcast %"class.std::ctype"* %12 to i8 (%"class.std::ctype"*, i8)***
  %24 = load i8 (%"class.std::ctype"*, i8)**, i8 (%"class.std::ctype"*, i8)*** %23, align 8, !tbaa !5
  %25 = getelementptr inbounds i8 (%"class.std::ctype"*, i8)*, i8 (%"class.std::ctype"*, i8)** %24, i64 6
  %26 = load i8 (%"class.std::ctype"*, i8)*, i8 (%"class.std::ctype"*, i8)** %25, align 8
  %27 = tail call signext i8 %26(%"class.std::ctype"* nonnull align 8 dereferenceable(570) %12, i8 signext 10)
  br label %28

28:                                               ; preds = %19, %22
  %29 = phi i8 [ %21, %19 ], [ %27, %22 ]
  %30 = call nonnull align 8 dereferenceable(16) %"class.std::basic_istream"* @_ZNSi7getlineEPclc(%"class.std::basic_istream"* nonnull align 8 dereferenceable(16) @_ZSt3cin, i8* nonnull %4, i64 5000, i8 signext %29)
  %31 = call i64 @strlen(i8* noundef nonnull %4) #10
  %32 = trunc i64 %31 to i32
  %33 = icmp sgt i32 %32, 0
  br i1 %33, label %34, label %78

34:                                               ; preds = %28
  %35 = shl i64 %31, 32
  %36 = ashr exact i64 %35, 32
  br label %37

37:                                               ; preds = %34, %76
  %38 = phi i64 [ %36, %34 ], [ %39, %76 ]
  %39 = add nsw i64 %38, -1
  %40 = getelementptr inbounds [5000 x i8], [5000 x i8]* %3, i64 0, i64 %39
  %41 = load i8, i8* %40, align 1, !tbaa !15
  %42 = icmp eq i8 %41, 32
  br i1 %42, label %43, label %61

43:                                               ; preds = %37
  %44 = getelementptr inbounds [5000 x i8], [5000 x i8]* %3, i64 0, i64 %38
  %45 = load i8, i8* %44, align 1, !tbaa !15
  %46 = icmp ne i8 %45, 32
  %47 = icmp slt i64 %38, %36
  %48 = select i1 %46, i1 %47, i1 false
  br i1 %48, label %49, label %59

49:                                               ; preds = %43, %49
  %50 = phi i64 [ %53, %49 ], [ %38, %43 ]
  %51 = phi i8 [ %55, %49 ], [ %45, %43 ]
  call void @llvm.lifetime.start.p0i8(i64 1, i8* nonnull %2)
  store i8 %51, i8* %2, align 1, !tbaa !15
  %52 = call nonnull align 8 dereferenceable(8) %"class.std::basic_ostream"* @_ZSt16__ostream_insertIcSt11char_traitsIcEERSt13basic_ostreamIT_T0_ES6_PKS3_l(%"class.std::basic_ostream"* nonnull align 8 dereferenceable(8) @_ZSt4cout, i8* nonnull %2, i64 1)
  call void @llvm.lifetime.end.p0i8(i64 1, i8* nonnull %2)
  %53 = add nsw i64 %50, 1
  %54 = getelementptr inbounds [5000 x i8], [5000 x i8]* %3, i64 0, i64 %53
  %55 = load i8, i8* %54, align 1, !tbaa !15
  %56 = icmp ne i8 %55, 32
  %57 = icmp slt i64 %53, %36
  %58 = select i1 %56, i1 %57, i1 false
  br i1 %58, label %49, label %59, !llvm.loop !16

59:                                               ; preds = %49, %43
  %60 = call nonnull align 8 dereferenceable(8) %"class.std::basic_ostream"* @_ZSt16__ostream_insertIcSt11char_traitsIcEERSt13basic_ostreamIT_T0_ES6_PKS3_l(%"class.std::basic_ostream"* nonnull align 8 dereferenceable(8) @_ZSt4cout, i8* nonnull getelementptr inbounds ([2 x i8], [2 x i8]* @.str, i64 0, i64 0), i64 1)
  br label %61

61:                                               ; preds = %59, %37
  %62 = icmp eq i64 %39, 0
  %63 = load i8, i8* %4, align 16
  %64 = icmp ne i8 %63, 32
  %65 = select i1 %62, i1 %64, i1 false
  br i1 %65, label %66, label %76

66:                                               ; preds = %61, %66
  %67 = phi i64 [ %70, %66 ], [ 0, %61 ]
  %68 = phi i8 [ %72, %66 ], [ %63, %61 ]
  call void @llvm.lifetime.start.p0i8(i64 1, i8* nonnull %1)
  store i8 %68, i8* %1, align 1, !tbaa !15
  %69 = call nonnull align 8 dereferenceable(8) %"class.std::basic_ostream"* @_ZSt16__ostream_insertIcSt11char_traitsIcEERSt13basic_ostreamIT_T0_ES6_PKS3_l(%"class.std::basic_ostream"* nonnull align 8 dereferenceable(8) @_ZSt4cout, i8* nonnull %1, i64 1)
  call void @llvm.lifetime.end.p0i8(i64 1, i8* nonnull %1)
  %70 = add nuw nsw i64 %67, 1
  %71 = getelementptr inbounds [5000 x i8], [5000 x i8]* %3, i64 0, i64 %70
  %72 = load i8, i8* %71, align 1, !tbaa !15
  %73 = icmp ne i8 %72, 32
  %74 = icmp slt i64 %70, %36
  %75 = select i1 %73, i1 %74, i1 false
  br i1 %75, label %66, label %76, !llvm.loop !18

76:                                               ; preds = %66, %61
  %77 = icmp sgt i64 %38, 1
  br i1 %77, label %37, label %78, !llvm.loop !19

78:                                               ; preds = %76, %28
  call void @llvm.lifetime.end.p0i8(i64 5000, i8* nonnull %4) #8
  ret i32 0
}

; Function Attrs: argmemonly mustprogress nofree nosync nounwind willreturn
declare void @llvm.lifetime.start.p0i8(i64 immarg, i8* nocapture) #4

; Function Attrs: argmemonly mustprogress nofree nounwind readonly willreturn
declare i64 @strlen(i8* nocapture) local_unnamed_addr #5

; Function Attrs: argmemonly mustprogress nofree nosync nounwind willreturn
declare void @llvm.lifetime.end.p0i8(i64 immarg, i8* nocapture) #4

declare nonnull align 8 dereferenceable(16) %"class.std::basic_istream"* @_ZNSi7getlineEPclc(%"class.std::basic_istream"* nonnull align 8 dereferenceable(16), i8*, i64, i8 signext) local_unnamed_addr #0

; Function Attrs: noreturn
declare void @_ZSt16__throw_bad_castv() local_unnamed_addr #6

declare void @_ZNKSt5ctypeIcE13_M_widen_initEv(%"class.std::ctype"* nonnull align 8 dereferenceable(570)) local_unnamed_addr #0

declare nonnull align 8 dereferenceable(8) %"class.std::basic_ostream"* @_ZSt16__ostream_insertIcSt11char_traitsIcEERSt13basic_ostreamIT_T0_ES6_PKS3_l(%"class.std::basic_ostream"* nonnull align 8 dereferenceable(8), i8*, i64) local_unnamed_addr #0

; Function Attrs: sspstrong uwtable
define internal void @_GLOBAL__sub_I_623.cpp() #7 section ".text.startup" {
  tail call void @_ZNSt8ios_base4InitC1Ev(%"class.std::ios_base::Init"* nonnull align 1 dereferenceable(1) @_ZStL8__ioinit)
  %1 = tail call i32 @__cxa_atexit(void (i8*)* bitcast (void (%"class.std::ios_base::Init"*)* @_ZNSt8ios_base4InitD1Ev to void (i8*)*), i8* getelementptr inbounds (%"class.std::ios_base::Init", %"class.std::ios_base::Init"* @_ZStL8__ioinit, i64 0, i32 0), i8* nonnull @__dso_handle) #8
  ret void
}


!llvm.module.flags = !{!0, !1, !2, !3}
!llvm.ident = !{!4}

!0 = !{i32 1, !"wchar_size", i32 4}
!1 = !{i32 7, !"PIC Level", i32 2}
!2 = !{i32 7, !"PIE Level", i32 2}
!3 = !{i32 7, !"uwtable", i32 1}
!4 = !{!"clang version 13.0.0"}
!5 = !{!6, !6, i64 0}
!6 = !{!"vtable pointer", !7, i64 0}
!7 = !{!"Simple C++ TBAA"}
!8 = !{!9, !10, i64 240}
!9 = !{!"_ZTSSt9basic_iosIcSt11char_traitsIcEE", !10, i64 216, !11, i64 224, !12, i64 225, !10, i64 232, !10, i64 240, !10, i64 248, !10, i64 256}
!10 = !{!"any pointer", !11, i64 0}
!11 = !{!"omnipotent char", !7, i64 0}
!12 = !{!"bool", !11, i64 0}
!13 = !{!14, !11, i64 56}
!14 = !{!"_ZTSSt5ctypeIcE", !10, i64 16, !12, i64 24, !10, i64 32, !10, i64 40, !10, i64 48, !11, i64 56, !11, i64 57, !11, i64 313, !11, i64 569}
!15 = !{!11, !11, i64 0}
!16 = distinct !{!16, !17}
!17 = !{!"llvm.loop.mustprogress"}
!18 = distinct !{!18, !17}
!19 = distinct !{!19, !17}
